target datalayout = "e-m:e-p270:32:32-p271:32:32-p272:64:64-i64:64-i128:128-f80:128-n8:16:32:64-S128"
target triple = "x86_64-pc-linux-gnu"

%"class.net::AeadBaseEncrypter" = type { %"class.net::QuicEncrypter", ptr, i64, i64, i64, [32 x i8], [4 x i8], %"class.net::ScopedEVPAEADCtx" }
%"class.net::QuicEncrypter" = type { ptr }
%"class.net::ScopedEVPAEADCtx" = type { %struct.evp_aead_ctx_st }
%struct.evp_aead_ctx_st = type { ptr, ptr }
%"class.base::BasicStringPiece" = type { ptr, i64 }

; Function Attrs: mustprogress uwtable
define internal void @_ZN3net12_GLOBAL__N_117DLogOpenSslErrorsEv() #0 {
  br label %1

1:                                                ; preds = %4, %0
  %2 = call i32 @ERR_get_error()
  %3 = icmp ne i32 %2, 0
  br i1 %3, label %4, label %5

4:                                                ; preds = %1
  br label %1, !llvm.loop !38

5:                                                ; preds = %1
  ret void
}

; Function Attrs: mustprogress nounwind uwtable
define available_externally noundef ptr @_ZNK4base16BasicStringPieceINSt7__cxx1112basic_stringIcSt11char_traitsIcESaIcEEEE4dataEv(ptr noundef nonnull align 8 dereferenceable(16) %0) #4 align 2 {
  %2 = alloca ptr, align 8
  store ptr %0, ptr %2, align 8, !tbaa !32
  %3 = load ptr, ptr %2, align 8
  %4 = getelementptr inbounds nuw %"class.base::BasicStringPiece", ptr %3, i32 0, i32 0
  %5 = load ptr, ptr %4, align 8, !tbaa !37
  ret ptr %5
}

; Function Attrs: mustprogress nounwind uwtable
define available_externally noundef i64 @_ZNK4base16BasicStringPieceINSt7__cxx1112basic_stringIcSt11char_traitsIcESaIcEEEE4sizeEv(ptr noundef nonnull align 8 dereferenceable(16) %0) #4 align 2 {
  %2 = alloca ptr, align 8
  store ptr %0, ptr %2, align 8, !tbaa !32
  %3 = load ptr, ptr %2, align 8
  %4 = getelementptr inbounds nuw %"class.base::BasicStringPiece", ptr %3, i32 0, i32 1
  %5 = load i64, ptr %4, align 8, !tbaa !34
  ret i64 %5
}

; Function Attrs: mustprogress uwtable
define noundef zeroext i1 @_ZN3net17AeadBaseEncrypter7EncryptEN4base16BasicStringPieceINSt7__cxx1112basic_stringIcSt11char_traitsIcESaIcEEEEES9_S9_Ph(ptr noundef nonnull align 8 dereferenceable(96) %0, ptr %1, i64 %2, ptr %3, i64 %4, ptr noundef byval(%"class.base::BasicStringPiece") align 8 %5, ptr noundef %6) #0 align 2 {
  %8 = alloca i1, align 1
  %9 = alloca %"class.base::BasicStringPiece", align 8
  %10 = alloca %"class.base::BasicStringPiece", align 8
  %11 = alloca ptr, align 8
  %12 = alloca ptr, align 8
  %13 = alloca i64, align 8
  %14 = alloca i32, align 4
  %15 = getelementptr inbounds nuw { ptr, i64 }, ptr %9, i32 0, i32 0
  store ptr %1, ptr %15, align 8
  %16 = getelementptr inbounds nuw { ptr, i64 }, ptr %9, i32 0, i32 1
  store i64 %2, ptr %16, align 8
  %17 = getelementptr inbounds nuw { ptr, i64 }, ptr %10, i32 0, i32 0
  store ptr %3, ptr %17, align 8
  %18 = getelementptr inbounds nuw { ptr, i64 }, ptr %10, i32 0, i32 1
  store i64 %4, ptr %18, align 8
  store ptr %0, ptr %11, align 8, !tbaa !3
  store ptr %6, ptr %12, align 8, !tbaa !40
  %19 = load ptr, ptr %11, align 8
  %20 = call noundef i64 @_ZNK4base16BasicStringPieceINSt7__cxx1112basic_stringIcSt11char_traitsIcESaIcEEEE4sizeEv(ptr noundef nonnull align 8 dereferenceable(16) %9)
  %21 = getelementptr inbounds nuw %"class.net::AeadBaseEncrypter", ptr %19, i32 0, i32 4
  %22 = load i64, ptr %21, align 8, !tbaa !21
  %23 = add i64 %22, 8
  %24 = icmp ne i64 %20, %23
  br i1 %24, label %25, label %26

25:                                               ; preds = %7
  store i1 false, ptr %8, align 1
  br label %45

26:                                               ; preds = %7
  call void @llvm.lifetime.start.p0(i64 8, ptr %13) #9
  %27 = getelementptr inbounds nuw %"class.net::AeadBaseEncrypter", ptr %19, i32 0, i32 7
  %28 = call noundef ptr @_ZN3net16ScopedEVPAEADCtx3getEv(ptr noundef nonnull align 8 dereferenceable(16) %27)
  %29 = load ptr, ptr %12, align 8, !tbaa !40
  %30 = call noundef i64 @_ZNK4base16BasicStringPieceINSt7__cxx1112basic_stringIcSt11char_traitsIcESaIcEEEE4sizeEv(ptr noundef nonnull align 8 dereferenceable(16) %5)
  %31 = getelementptr inbounds nuw %"class.net::AeadBaseEncrypter", ptr %19, i32 0, i32 3
  %32 = load i64, ptr %31, align 8, !tbaa !20
  %33 = add i64 %30, %32
  %34 = call noundef ptr @_ZNK4base16BasicStringPieceINSt7__cxx1112basic_stringIcSt11char_traitsIcESaIcEEEE4dataEv(ptr noundef nonnull align 8 dereferenceable(16) %9)
  %35 = call noundef i64 @_ZNK4base16BasicStringPieceINSt7__cxx1112basic_stringIcSt11char_traitsIcESaIcEEEE4sizeEv(ptr noundef nonnull align 8 dereferenceable(16) %9)
  %36 = call noundef ptr @_ZNK4base16BasicStringPieceINSt7__cxx1112basic_stringIcSt11char_traitsIcESaIcEEEE4dataEv(ptr noundef nonnull align 8 dereferenceable(16) %5)
  %37 = call noundef i64 @_ZNK4base16BasicStringPieceINSt7__cxx1112basic_stringIcSt11char_traitsIcESaIcEEEE4sizeEv(ptr noundef nonnull align 8 dereferenceable(16) %5)
  %38 = call noundef ptr @_ZNK4base16BasicStringPieceINSt7__cxx1112basic_stringIcSt11char_traitsIcESaIcEEEE4dataEv(ptr noundef nonnull align 8 dereferenceable(16) %10)
  %39 = call noundef i64 @_ZNK4base16BasicStringPieceINSt7__cxx1112basic_stringIcSt11char_traitsIcESaIcEEEE4sizeEv(ptr noundef nonnull align 8 dereferenceable(16) %10)
  %40 = call i32 @EVP_AEAD_CTX_seal(ptr noundef %28, ptr noundef %29, ptr noundef %13, i64 noundef %33, ptr noundef %34, i64 noundef %35, ptr noundef %36, i64 noundef %37, ptr noundef %38, i64 noundef %39)
  %41 = icmp ne i32 %40, 0
  br i1 %41, label %43, label %42

42:                                               ; preds = %26
  call void @_ZN3net12_GLOBAL__N_117DLogOpenSslErrorsEv()
  store i1 false, ptr %8, align 1
  store i32 1, ptr %14, align 4
  br label %44

43:                                               ; preds = %26
  store i1 true, ptr %8, align 1
  store i32 1, ptr %14, align 4
  br label %44

44:                                               ; preds = %43, %42
  call void @llvm.lifetime.end.p0(i64 8, ptr %13) #9
  br label %45

45:                                               ; preds = %44, %25
  %46 = load i1, ptr %8, align 1
  ret i1 %46
}