; Function Attrs: mustprogress uwtable
define noundef zeroext i1 @_ZN3net17AeadBaseEncrypter7EncryptEN4base16BasicStringPieceINSt7__cxx1112basic_stringIcSt11char_traitsIcESaIcEEEEES9_S9_Ph(ptr noundef nonnull align 8 dereferenceable(96) %0, ptr %1, i64 %2, ptr %3, i64 %4, ptr noundef readonly byval(%"class.base::BasicStringPiece") align 8 captures(none) %5, ptr noundef %6) local_unnamed_addr #0 align 2 {
  %8 = alloca i64, align 8
  %9 = getelementptr inbounds nuw i8, ptr %0, i64 32
  %10 = load i64, ptr %9, align 8, !tbaa !17
  %11 = add i64 %10, 8
  %.not = icmp eq i64 %2, %11
  br i1 %.not, label %12, label %23

12:                                               ; preds = %7
  call void @llvm.lifetime.start.p0(i64 8, ptr nonnull %8) #9
  %13 = getelementptr inbounds nuw i8, ptr %0, i64 80
  %14 = tail call noundef ptr @_ZN3net16ScopedEVPAEADCtx3getEv(ptr noundef nonnull align 8 dereferenceable(16) %13)
  %15 = getelementptr inbounds nuw i8, ptr %5, i64 8
  %16 = load i64, ptr %15, align 8, !tbaa !20
  %17 = getelementptr inbounds nuw i8, ptr %0, i64 24
  %18 = load i64, ptr %17, align 8, !tbaa !16
  %19 = add i64 %18, %16
  %20 = load ptr, ptr %5, align 8, !tbaa !23
  %21 = call i32 @EVP_AEAD_CTX_seal(ptr noundef %14, ptr noundef %6, ptr noundef nonnull %8, i64 noundef %19, ptr noundef %1, i64 noundef %2, ptr noundef %20, i64 noundef %16, ptr noundef %3, i64 noundef %4)
  %.not3 = icmp ne i32 %21, 0
  br i1 %.not3, label %_ZN3net12_GLOBAL__N_117DLogOpenSslErrorsEv.exit, label %.preheader

.preheader:                                       ; preds = %12, %.preheader
  %22 = call i32 @ERR_get_error()
  %.not.i = icmp eq i32 %22, 0
  br i1 %.not.i, label %_ZN3net12_GLOBAL__N_117DLogOpenSslErrorsEv.exit, label %.preheader, !llvm.loop !18

_ZN3net12_GLOBAL__N_117DLogOpenSslErrorsEv.exit:  ; preds = %.preheader, %12
  call void @llvm.lifetime.end.p0(i64 8, ptr nonnull %8) #9
  br label %23

23:                                               ; preds = %7, %_ZN3net12_GLOBAL__N_117DLogOpenSslErrorsEv.exit
  %.0 = phi i1 [ %.not3, %_ZN3net12_GLOBAL__N_117DLogOpenSslErrorsEv.exit ], [ false, %7 ]
  ret i1 %.0
}